(dp0
Vengine
p1
Vpdflatex
p2
sVpackages
p3
c__builtin__
set
p4
((lp5
Vhyperref
p6
aVxcolor
p7
aVtitlesec
p8
aVbooktabs
p9
aVgeometry
p10
aVsetspace
p11
aVfloat
p12
aVtitling
p13
aVabstract
p14
aVurl
p15
aVfancyhdr
p16
aVcolortbl
p17
aVbbding
p18
aVadjustbox
p19
aVfontenc
p20
aVlongtable
p21
aVinputenc
p22
aVwrapfig
p23
aVlastpage
p24
aVparskip
p25
atp26
Rp27
sVfiles_with_guttermarks
p28
g4
((lp29
S'readinglist_au.tex'
p30
atp31
Rp32
sVsynctex
p33
I01
s.